; Function Attrs: mustprogress uwtable
define hidden noundef zeroext i1 @_ZNK3nla4core8rm_checkERKNS_5monicE(ptr noundef nonnull readonly align 8 captures(none) dereferenceable(4736) %0, ptr noundef nonnull readonly align 8 captures(none) dereferenceable(34) %1) local_unnamed_addr #4 align 2 {
  %3 = load i32, ptr %1, align 8, !tbaa !305
  %4 = getelementptr inbounds nuw i8, ptr %0, i64 4544
  %5 = getelementptr inbounds nuw i8, ptr %0, i64 4552
  %6 = load ptr, ptr %5, align 8, !tbaa !188
  %7 = zext i32 %3 to i64
  %8 = getelementptr inbounds nuw i32, ptr %6, i64 %7
  %9 = load i32, ptr %8, align 4, !tbaa !249
  %10 = load ptr, ptr %4, align 8, !tbaa !293
  %11 = zext i32 %9 to i64
  %12 = getelementptr inbounds nuw %"class.nla::monic", ptr %10, i64 %11
  %13 = tail call noundef zeroext i1 @_ZNK3nla4core11check_monicERKNS_5monicE(ptr noundef nonnull align 8 dereferenceable(4736) %0, ptr noundef nonnull align 8 dereferenceable(34) %12)
  ret i1 %13
}